; Function Attrs: mustprogress uwtable
define void @_ZN9QuickOpenC2Ev(ptr noundef nonnull align 8 dereferenceable(2673) %0) unnamed_addr #0 align 2 personality ptr @__gxx_personality_v0 {
  %2 = getelementptr inbounds i8, ptr %0, i64 48
  tail call void @_ZN9CryptDataC1Ev(ptr noundef nonnull align 8 dereferenceable(2516) %2)
  %3 = getelementptr inbounds i8, ptr %0, i64 2624
  tail call void @llvm.memset.p0.i64(ptr noundef nonnull align 8 dereferenceable(32) %3, i8 0, i64 32, i1 false)
  %4 = getelementptr inbounds i8, ptr %0, i64 16
  store ptr null, ptr %0, align 8
  %5 = getelementptr inbounds i8, ptr %0, i64 8
  store i8 0, ptr %5, align 8
  tail call void @llvm.memset.p0.i64(ptr noundef nonnull align 8 dereferenceable(24) %4, i8 0, i64 24, i1 false)
  %6 = invoke noalias noundef nonnull dereferenceable(65536) ptr @_Znam(i64 noundef 65536) #14
          to label %7 unwind label %_ZN5ArrayIhED2Ev.exit

7:                                                ; preds = %1
  %8 = getelementptr inbounds i8, ptr %0, i64 32
  store ptr %6, ptr %8, align 8
  %9 = getelementptr inbounds i8, ptr %0, i64 40
  store i64 0, ptr %9, align 8
  %10 = getelementptr inbounds i8, ptr %0, i64 2568
  store i8 0, ptr %10, align 8
  ret void

_ZN5ArrayIhED2Ev.exit:                            ; preds = %1
  %11 = landingpad { ptr, i32 }
          cleanup
  tail call void @_ZN9CryptDataD2Ev(ptr noundef nonnull align 8 dereferenceable(2516) %2) #15
  resume { ptr, i32 } %11
}